target datalayout = "e-m:e-p270:32:32-p271:32:32-p272:64:64-i64:64-i128:128-f80:128-n8:16:32:64-S128"
target triple = "x86_64-pc-linux-gnu"

%struct.FStar_UInt128_uint128_s = type { i64, i64 }

; Function Attrs: inlinehint nounwind uwtable
define internal i64 @FStar_UInt128_constant_time_carry(i64 noundef %0, i64 noundef %1) #4 {
  %3 = alloca i64, align 8
  %4 = alloca i64, align 8
  store i64 %0, ptr %3, align 8, !tbaa !22
  store i64 %1, ptr %4, align 8, !tbaa !22
  %5 = load i64, ptr %3, align 8, !tbaa !22
  %6 = load i64, ptr %3, align 8, !tbaa !22
  %7 = load i64, ptr %4, align 8, !tbaa !22
  %8 = xor i64 %6, %7
  %9 = load i64, ptr %3, align 8, !tbaa !22
  %10 = load i64, ptr %4, align 8, !tbaa !22
  %11 = sub i64 %9, %10
  %12 = load i64, ptr %4, align 8, !tbaa !22
  %13 = xor i64 %11, %12
  %14 = or i64 %8, %13
  %15 = xor i64 %5, %14
  %16 = lshr i64 %15, 63
  ret i64 %16
}

; Function Attrs: inlinehint nounwind uwtable
define internal i64 @FStar_UInt128_carry(i64 noundef %0, i64 noundef %1) #4 {
  %3 = alloca i64, align 8
  %4 = alloca i64, align 8
  store i64 %0, ptr %3, align 8, !tbaa !22
  store i64 %1, ptr %4, align 8, !tbaa !22
  %5 = load i64, ptr %3, align 8, !tbaa !22
  %6 = load i64, ptr %4, align 8, !tbaa !22
  %7 = call i64 @FStar_UInt128_constant_time_carry(i64 noundef %5, i64 noundef %6)
  ret i64 %7
}

; Function Attrs: inlinehint nounwind uwtable
define internal { i64, i64 } @FStar_UInt128_add_mod(i64 %0, i64 %1, i64 %2, i64 %3) #4 {
  %5 = alloca %struct.FStar_UInt128_uint128_s, align 8
  %6 = alloca %struct.FStar_UInt128_uint128_s, align 8
  %7 = alloca %struct.FStar_UInt128_uint128_s, align 8
  %8 = getelementptr inbounds nuw { i64, i64 }, ptr %6, i32 0, i32 0
  store i64 %0, ptr %8, align 8
  %9 = getelementptr inbounds nuw { i64, i64 }, ptr %6, i32 0, i32 1
  store i64 %1, ptr %9, align 8
  %10 = getelementptr inbounds nuw { i64, i64 }, ptr %7, i32 0, i32 0
  store i64 %2, ptr %10, align 8
  %11 = getelementptr inbounds nuw { i64, i64 }, ptr %7, i32 0, i32 1
  store i64 %3, ptr %11, align 8
  %12 = getelementptr inbounds nuw %struct.FStar_UInt128_uint128_s, ptr %6, i32 0, i32 0
  %13 = load i64, ptr %12, align 8, !tbaa !31
  %14 = getelementptr inbounds nuw %struct.FStar_UInt128_uint128_s, ptr %7, i32 0, i32 0
  %15 = load i64, ptr %14, align 8, !tbaa !31
  %16 = add i64 %13, %15
  %17 = getelementptr inbounds nuw %struct.FStar_UInt128_uint128_s, ptr %5, i32 0, i32 0
  store i64 %16, ptr %17, align 8, !tbaa !31
  %18 = getelementptr inbounds nuw %struct.FStar_UInt128_uint128_s, ptr %6, i32 0, i32 1
  %19 = load i64, ptr %18, align 8, !tbaa !33
  %20 = getelementptr inbounds nuw %struct.FStar_UInt128_uint128_s, ptr %7, i32 0, i32 1
  %21 = load i64, ptr %20, align 8, !tbaa !33
  %22 = add i64 %19, %21
  %23 = getelementptr inbounds nuw %struct.FStar_UInt128_uint128_s, ptr %6, i32 0, i32 0
  %24 = load i64, ptr %23, align 8, !tbaa !31
  %25 = getelementptr inbounds nuw %struct.FStar_UInt128_uint128_s, ptr %7, i32 0, i32 0
  %26 = load i64, ptr %25, align 8, !tbaa !31
  %27 = add i64 %24, %26
  %28 = getelementptr inbounds nuw %struct.FStar_UInt128_uint128_s, ptr %7, i32 0, i32 0
  %29 = load i64, ptr %28, align 8, !tbaa !31
  %30 = call i64 @FStar_UInt128_carry(i64 noundef %27, i64 noundef %29)
  %31 = add i64 %22, %30
  %32 = getelementptr inbounds nuw %struct.FStar_UInt128_uint128_s, ptr %5, i32 0, i32 1
  store i64 %31, ptr %32, align 8, !tbaa !33
  %33 = load { i64, i64 }, ptr %5, align 8
  ret { i64, i64 } %33
}

; Function Attrs: inlinehint nounwind uwtable
define internal { i64, i64 } @FStar_UInt128_uint64_to_uint128(i64 noundef %0) #4 {
  %2 = alloca %struct.FStar_UInt128_uint128_s, align 8
  %3 = alloca i64, align 8
  store i64 %0, ptr %3, align 8, !tbaa !22
  %4 = load i64, ptr %3, align 8, !tbaa !22
  %5 = getelementptr inbounds nuw %struct.FStar_UInt128_uint128_s, ptr %2, i32 0, i32 0
  store i64 %4, ptr %5, align 8, !tbaa !31
  %6 = getelementptr inbounds nuw %struct.FStar_UInt128_uint128_s, ptr %2, i32 0, i32 1
  store i64 0, ptr %6, align 8, !tbaa !33
  %7 = load { i64, i64 }, ptr %2, align 8
  ret { i64, i64 } %7
}

; Function Attrs: nounwind uwtable
define hidden void @python_hashlib_Hacl_Hash_Blake2b_Simd256_update_last(i32 noundef %0, ptr noundef %1, ptr noundef %2, i1 noundef zeroext %3, i64 %4, i64 %5, i32 noundef %6, ptr noundef %7) #5 {
  %9 = alloca %struct.FStar_UInt128_uint128_s, align 8
  %10 = alloca i32, align 4
  %11 = alloca ptr, align 8
  %12 = alloca ptr, align 8
  %13 = alloca i8, align 1
  %14 = alloca i32, align 4
  %15 = alloca ptr, align 8
  %16 = alloca [128 x i8], align 16
  %17 = alloca ptr, align 8
  %18 = alloca %struct.FStar_UInt128_uint128_s, align 8
  %19 = alloca %struct.FStar_UInt128_uint128_s, align 8
  %20 = getelementptr inbounds nuw { i64, i64 }, ptr %9, i32 0, i32 0
  store i64 %4, ptr %20, align 8
  %21 = getelementptr inbounds nuw { i64, i64 }, ptr %9, i32 0, i32 1
  store i64 %5, ptr %21, align 8
  store i32 %0, ptr %10, align 4, !tbaa !7
  store ptr %1, ptr %11, align 8, !tbaa !3
  store ptr %2, ptr %12, align 8, !tbaa !3
  %22 = zext i1 %3 to i8
  store i8 %22, ptr %13, align 1, !tbaa !34
  store i32 %6, ptr %14, align 4, !tbaa !7
  store ptr %7, ptr %15, align 8, !tbaa !26
  call void @llvm.lifetime.start.p0(i64 128, ptr %16) #14
  call void @llvm.memset.p0.i64(ptr align 16 %16, i8 0, i64 128, i1 false)
  call void @llvm.lifetime.start.p0(i64 8, ptr %17) #14
  %23 = load ptr, ptr %15, align 8, !tbaa !26
  %24 = load i32, ptr %10, align 4, !tbaa !7
  %25 = zext i32 %24 to i64
  %26 = getelementptr i8, ptr %23, i64 %25
  %27 = load i32, ptr %14, align 4, !tbaa !7
  %28 = zext i32 %27 to i64
  %29 = sub i64 0, %28
  %30 = getelementptr i8, ptr %26, i64 %29
  store ptr %30, ptr %17, align 8, !tbaa !26
  %31 = getelementptr inbounds [128 x i8], ptr %16, i64 0, i64 0
  %32 = load ptr, ptr %17, align 8, !tbaa !26
  %33 = load i32, ptr %14, align 4, !tbaa !7
  %34 = zext i32 %33 to i64
  %35 = mul i64 %34, 1
  call void @llvm.memcpy.p0.p0.i64(ptr align 16 %31, ptr align 1 %32, i64 %35, i1 false)
  call void @llvm.lifetime.start.p0(i64 16, ptr %18) #14
  %36 = load i32, ptr %10, align 4, !tbaa !7
  %37 = zext i32 %36 to i64
  %38 = call { i64, i64 } @FStar_UInt128_uint64_to_uint128(i64 noundef %37)
  %39 = getelementptr inbounds nuw { i64, i64 }, ptr %19, i32 0, i32 0
  %40 = extractvalue { i64, i64 } %38, 0
  store i64 %40, ptr %39, align 8
  %41 = getelementptr inbounds nuw { i64, i64 }, ptr %19, i32 0, i32 1
  %42 = extractvalue { i64, i64 } %38, 1
  store i64 %42, ptr %41, align 8
  %43 = getelementptr inbounds nuw { i64, i64 }, ptr %9, i32 0, i32 0
  %44 = load i64, ptr %43, align 8
  %45 = getelementptr inbounds nuw { i64, i64 }, ptr %9, i32 0, i32 1
  %46 = load i64, ptr %45, align 8
  %47 = getelementptr inbounds nuw { i64, i64 }, ptr %19, i32 0, i32 0
  %48 = load i64, ptr %47, align 8
  %49 = getelementptr inbounds nuw { i64, i64 }, ptr %19, i32 0, i32 1
  %50 = load i64, ptr %49, align 8
  %51 = call { i64, i64 } @FStar_UInt128_add_mod(i64 %44, i64 %46, i64 %48, i64 %50)
  %52 = getelementptr inbounds nuw { i64, i64 }, ptr %18, i32 0, i32 0
  %53 = extractvalue { i64, i64 } %51, 0
  store i64 %53, ptr %52, align 8
  %54 = getelementptr inbounds nuw { i64, i64 }, ptr %18, i32 0, i32 1
  %55 = extractvalue { i64, i64 } %51, 1
  store i64 %55, ptr %54, align 8
  %56 = load ptr, ptr %11, align 8, !tbaa !3
  %57 = load ptr, ptr %12, align 8, !tbaa !3
  %58 = load i8, ptr %13, align 1, !tbaa !34, !range !36, !noundef !37
  %59 = trunc i8 %58 to i1
  %60 = getelementptr inbounds [128 x i8], ptr %16, i64 0, i64 0
  %61 = getelementptr inbounds nuw { i64, i64 }, ptr %18, i32 0, i32 0
  %62 = load i64, ptr %61, align 8
  %63 = getelementptr inbounds nuw { i64, i64 }, ptr %18, i32 0, i32 1
  %64 = load i64, ptr %63, align 8
  call void @update_block(ptr noundef %56, ptr noundef %57, i1 noundef zeroext true, i1 noundef zeroext %59, i64 %62, i64 %64, ptr noundef %60)
  %65 = getelementptr inbounds [128 x i8], ptr %16, i64 0, i64 0
  call void @Lib_Memzero0_memzero0(ptr noundef %65, i64 noundef 128)
  call void @llvm.lifetime.end.p0(i64 16, ptr %18) #14
  call void @llvm.lifetime.end.p0(i64 8, ptr %17) #14
  call void @llvm.lifetime.end.p0(i64 128, ptr %16) #14
  ret void
}