; Function Attrs: nounwind uwtable
define hidden void @python_hashlib_Hacl_Hash_Blake2b_Simd256_update_last(i32 noundef %0, ptr noundef captures(none) initializes((0, 128)) %1, ptr noundef captures(none) %2, i1 noundef zeroext %3, i64 %4, i64 %5, i32 noundef %6, ptr noundef readonly captures(none) %7) local_unnamed_addr #5 {
  %9 = alloca [128 x i8], align 16
  call void @llvm.lifetime.start.p0(i64 128, ptr nonnull %9) #26
  call void @llvm.memset.p0.i64(ptr noundef nonnull align 16 dereferenceable(128) %9, i8 0, i64 128, i1 false)
  %10 = zext i32 %0 to i64
  %11 = getelementptr i8, ptr %7, i64 %10
  %12 = zext i32 %6 to i64
  %13 = sub nsw i64 0, %12
  %14 = getelementptr i8, ptr %11, i64 %13
  call void @llvm.memcpy.p0.p0.i64(ptr nonnull align 16 %9, ptr align 1 %14, i64 %12, i1 false)
  %15 = add i64 %4, %10
  %16 = xor i64 %15, -1
  %17 = and i64 %4, %16
  %18 = lshr i64 %17, 63
  %19 = add i64 %18, %5
  call fastcc void @update_block(ptr noundef %1, ptr noundef %2, i1 noundef zeroext true, i1 noundef zeroext %3, i64 %15, i64 %19, ptr noundef nonnull %9)
  call void @Lib_Memzero0_memzero0(ptr noundef nonnull %9, i64 noundef 128) #26
  call void @llvm.lifetime.end.p0(i64 128, ptr nonnull %9) #26
  ret void
}